target datalayout = "e-m:e-p270:32:32-p271:32:32-p272:64:64-i64:64-i128:128-f80:128-n8:16:32:64-S128"
target triple = "x86_64-pc-linux-gnu"

; Function Attrs: nounwind uwtable
define i32 @Wlc_ObjIsArithmReal(ptr noundef %0) #0 {
  %2 = alloca ptr, align 8
  store ptr %0, ptr %2, align 8, !tbaa !3
  %3 = load ptr, ptr %2, align 8, !tbaa !3
  %4 = load i16, ptr %3, align 8
  %5 = and i16 %4, 63
  %6 = zext i16 %5 to i32
  %7 = icmp eq i32 %6, 15
  br i1 %7, label %32, label %8

8:                                                ; preds = %1
  %9 = load ptr, ptr %2, align 8, !tbaa !3
  %10 = load i16, ptr %9, align 8
  %11 = and i16 %10, 63
  %12 = zext i16 %11 to i32
  %13 = icmp eq i32 %12, 43
  br i1 %13, label %32, label %14

14:                                               ; preds = %8
  %15 = load ptr, ptr %2, align 8, !tbaa !3
  %16 = load i16, ptr %15, align 8
  %17 = and i16 %16, 63
  %18 = zext i16 %17 to i32
  %19 = icmp eq i32 %18, 44
  br i1 %19, label %32, label %20

20:                                               ; preds = %14
  %21 = load ptr, ptr %2, align 8, !tbaa !3
  %22 = load i16, ptr %21, align 8
  %23 = and i16 %22, 63
  %24 = zext i16 %23 to i32
  %25 = icmp eq i32 %24, 45
  br i1 %25, label %32, label %26

26:                                               ; preds = %20
  %27 = load ptr, ptr %2, align 8, !tbaa !3
  %28 = load i16, ptr %27, align 8
  %29 = and i16 %28, 63
  %30 = zext i16 %29 to i32
  %31 = icmp eq i32 %30, 50
  br label %32

32:                                               ; preds = %26, %20, %14, %8, %1
  %33 = phi i1 [ true, %20 ], [ true, %14 ], [ true, %8 ], [ true, %1 ], [ %31, %26 ]
  %34 = zext i1 %33 to i32
  ret i32 %34
}